; Function Attrs: mustprogress nofree norecurse nosync nounwind willreturn memory(argmem: readwrite) uwtable
define internal noundef zeroext i1 @_ZNSt17_Function_handlerIFvPvN5folly18TLPDestructionModeEEZNS1_18threadlocal_detail14ElementWrapper11makeDeleterIPNS1_20SingletonThreadLocalINS1_4test12_GLOBAL__N_114PerThreadStateENS1_6detail10DefaultTagENSB_11DefaultMakeISA_EEvE7WrapperESt17reference_wrapperIS3_EEEDaRKT0_EUlS0_S2_E_E10_M_managerERSt9_Any_dataRKSP_St18_Manager_operation(ptr noundef nonnull writeonly align 8 captures(none) dereferenceable(16) %0, ptr noundef nonnull align 8 dereferenceable(16) %1, i32 noundef %2) #12 align 2 personality ptr @__gxx_personality_v0 {
  switch i32 %2, label %_ZNSt14_Function_base13_Base_managerIZN5folly18threadlocal_detail14ElementWrapper11makeDeleterIPNS1_20SingletonThreadLocalINS1_4test12_GLOBAL__N_114PerThreadStateENS1_6detail10DefaultTagENS9_11DefaultMakeIS8_EEvE7WrapperESt17reference_wrapperIFvPvNS1_18TLPDestructionModeEEEEEDaRKT0_EUlSH_SI_E_E10_M_managerERSt9_Any_dataRKSQ_St18_Manager_operation.exit [
    i32 0, label %4
    i32 1, label %5
    i32 2, label %6
  ]

4:                                                ; preds = %3
  store ptr @_ZTIZN5folly18threadlocal_detail14ElementWrapper11makeDeleterIPNS_20SingletonThreadLocalINS_4test12_GLOBAL__N_114PerThreadStateENS_6detail10DefaultTagENS7_11DefaultMakeIS6_EEvE7WrapperESt17reference_wrapperIFvPvNS_18TLPDestructionModeEEEEEDaRKT0_EUlSF_SG_E_, ptr %0, align 8, !tbaa !296
  br label %_ZNSt14_Function_base13_Base_managerIZN5folly18threadlocal_detail14ElementWrapper11makeDeleterIPNS1_20SingletonThreadLocalINS1_4test12_GLOBAL__N_114PerThreadStateENS1_6detail10DefaultTagENS9_11DefaultMakeIS8_EEvE7WrapperESt17reference_wrapperIFvPvNS1_18TLPDestructionModeEEEEEDaRKT0_EUlSH_SI_E_E10_M_managerERSt9_Any_dataRKSQ_St18_Manager_operation.exit

5:                                                ; preds = %3
  store ptr %1, ptr %0, align 8, !tbaa !137
  br label %_ZNSt14_Function_base13_Base_managerIZN5folly18threadlocal_detail14ElementWrapper11makeDeleterIPNS1_20SingletonThreadLocalINS1_4test12_GLOBAL__N_114PerThreadStateENS1_6detail10DefaultTagENS9_11DefaultMakeIS8_EEvE7WrapperESt17reference_wrapperIFvPvNS1_18TLPDestructionModeEEEEEDaRKT0_EUlSH_SI_E_E10_M_managerERSt9_Any_dataRKSQ_St18_Manager_operation.exit

6:                                                ; preds = %3
  %.val.i = load i64, ptr %1, align 8
  store i64 %.val.i, ptr %0, align 8
  br label %_ZNSt14_Function_base13_Base_managerIZN5folly18threadlocal_detail14ElementWrapper11makeDeleterIPNS1_20SingletonThreadLocalINS1_4test12_GLOBAL__N_114PerThreadStateENS1_6detail10DefaultTagENS9_11DefaultMakeIS8_EEvE7WrapperESt17reference_wrapperIFvPvNS1_18TLPDestructionModeEEEEEDaRKT0_EUlSH_SI_E_E10_M_managerERSt9_Any_dataRKSQ_St18_Manager_operation.exit

_ZNSt14_Function_base13_Base_managerIZN5folly18threadlocal_detail14ElementWrapper11makeDeleterIPNS1_20SingletonThreadLocalINS1_4test12_GLOBAL__N_114PerThreadStateENS1_6detail10DefaultTagENS9_11DefaultMakeIS8_EEvE7WrapperESt17reference_wrapperIFvPvNS1_18TLPDestructionModeEEEEEDaRKT0_EUlSH_SI_E_E10_M_managerERSt9_Any_dataRKSQ_St18_Manager_operation.exit: ; preds = %3, %6, %5, %4
  ret i1 false
}